target datalayout = "e-m:e-p270:32:32-p271:32:32-p272:64:64-i64:64-i128:128-f80:128-n8:16:32:64-S128"
target triple = "x86_64-pc-linux-gnu"

%struct.dt_gpx_t = type { ptr, ptr, ptr, i32, i32, i32, i32, ptr }

@.str.4 = private unnamed_addr constant [15 x i8] c"*error == NULL\00", align 1
@.str.5 = private unnamed_addr constant [4 x i8] c"trk\00", align 1
@.str.6 = private unnamed_addr constant [6 x i8] c"trkpt\00", align 1
@.str.15 = private unnamed_addr constant [7 x i8] c"trkseg\00", align 1
@__func__._gpx_parser_end_element = private unnamed_addr constant [24 x i8] c"_gpx_parser_end_element\00", align 1

; Function Attrs: nounwind uwtable
define internal void @_gpx_parser_end_element(ptr noundef %0, ptr noundef %1, ptr noundef %2, ptr noundef %3) #0 {
  %5 = alloca ptr, align 8
  %6 = alloca ptr, align 8
  %7 = alloca ptr, align 8
  %8 = alloca ptr, align 8
  %9 = alloca i32, align 4
  %10 = alloca i32, align 4
  %11 = alloca ptr, align 8
  store ptr %0, ptr %5, align 8, !tbaa !15
  store ptr %1, ptr %6, align 8, !tbaa !6
  store ptr %2, ptr %7, align 8, !tbaa !65
  store ptr %3, ptr %8, align 8, !tbaa !102
  br label %12

12:                                               ; preds = %4
  call void @llvm.lifetime.start.p0(i64 4, ptr %9) #10
  %13 = load ptr, ptr %8, align 8, !tbaa !102
  %14 = load ptr, ptr %13, align 8, !tbaa !11
  %15 = icmp eq ptr %14, null
  br i1 %15, label %16, label %17

16:                                               ; preds = %12
  store i32 1, ptr %9, align 4, !tbaa !13
  br label %18

17:                                               ; preds = %12
  store i32 0, ptr %9, align 4, !tbaa !13
  br label %18

18:                                               ; preds = %17, %16
  %19 = load i32, ptr %9, align 4, !tbaa !13
  store i32 %19, ptr %10, align 4, !tbaa !13
  call void @llvm.lifetime.end.p0(i64 4, ptr %9) #10
  %20 = load i32, ptr %10, align 4, !tbaa !13
  %21 = sext i32 %20 to i64
  %22 = call i64 @llvm.expect.i64(i64 %21, i64 1)
  %23 = icmp ne i64 %22, 0
  br i1 %23, label %24, label %25

24:                                               ; preds = %18
  br label %26

25:                                               ; preds = %18
  call void @g_return_if_fail_warning(ptr noundef null, ptr noundef @__func__._gpx_parser_end_element, ptr noundef @.str.4)
  br label %81

26:                                               ; preds = %24
  br label %27

27:                                               ; preds = %26
  call void @llvm.lifetime.start.p0(i64 8, ptr %11) #10
  %28 = load ptr, ptr %7, align 8, !tbaa !65
  store ptr %28, ptr %11, align 8, !tbaa !17
  %29 = load ptr, ptr %11, align 8, !tbaa !17
  %30 = getelementptr inbounds nuw %struct.dt_gpx_t, ptr %29, i32 0, i32 5
  %31 = load i32, ptr %30, align 8, !tbaa !104
  %32 = icmp eq i32 %31, 1
  br i1 %32, label %33, label %80

33:                                               ; preds = %27
  %34 = load ptr, ptr %6, align 8, !tbaa !6
  %35 = call i32 @strcmp(ptr noundef %34, ptr noundef @.str.5) #13
  %36 = icmp eq i32 %35, 0
  br i1 %36, label %37, label %40

37:                                               ; preds = %33
  %38 = load ptr, ptr %11, align 8, !tbaa !17
  %39 = getelementptr inbounds nuw %struct.dt_gpx_t, ptr %38, i32 0, i32 5
  store i32 0, ptr %39, align 8, !tbaa !104
  br label %77

40:                                               ; preds = %33
  %41 = load ptr, ptr %6, align 8, !tbaa !6
  %42 = call i32 @strcmp(ptr noundef %41, ptr noundef @.str.6) #13
  %43 = icmp eq i32 %42, 0
  br i1 %43, label %44, label %66

44:                                               ; preds = %40
  %45 = load ptr, ptr %11, align 8, !tbaa !17
  %46 = getelementptr inbounds nuw %struct.dt_gpx_t, ptr %45, i32 0, i32 4
  %47 = load i32, ptr %46, align 4, !tbaa !106
  %48 = icmp ne i32 %47, 0
  br i1 %48, label %59, label %49

49:                                               ; preds = %44
  %50 = load ptr, ptr %11, align 8, !tbaa !17
  %51 = getelementptr inbounds nuw %struct.dt_gpx_t, ptr %50, i32 0, i32 0
  %52 = load ptr, ptr %51, align 8, !tbaa !22
  %53 = load ptr, ptr %11, align 8, !tbaa !17
  %54 = getelementptr inbounds nuw %struct.dt_gpx_t, ptr %53, i32 0, i32 2
  %55 = load ptr, ptr %54, align 8, !tbaa !105
  %56 = call ptr @g_list_prepend(ptr noundef %52, ptr noundef %55)
  %57 = load ptr, ptr %11, align 8, !tbaa !17
  %58 = getelementptr inbounds nuw %struct.dt_gpx_t, ptr %57, i32 0, i32 0
  store ptr %56, ptr %58, align 8, !tbaa !22
  br label %63

59:                                               ; preds = %44
  %60 = load ptr, ptr %11, align 8, !tbaa !17
  %61 = getelementptr inbounds nuw %struct.dt_gpx_t, ptr %60, i32 0, i32 2
  %62 = load ptr, ptr %61, align 8, !tbaa !105
  call void @g_free(ptr noundef %62)
  br label %63

63:                                               ; preds = %59, %49
  %64 = load ptr, ptr %11, align 8, !tbaa !17
  %65 = getelementptr inbounds nuw %struct.dt_gpx_t, ptr %64, i32 0, i32 2
  store ptr null, ptr %65, align 8, !tbaa !105
  br label %76

66:                                               ; preds = %40
  %67 = load ptr, ptr %6, align 8, !tbaa !6
  %68 = call i32 @strcmp(ptr noundef %67, ptr noundef @.str.15) #13
  %69 = icmp eq i32 %68, 0
  br i1 %69, label %70, label %75

70:                                               ; preds = %66
  %71 = load ptr, ptr %11, align 8, !tbaa !17
  %72 = getelementptr inbounds nuw %struct.dt_gpx_t, ptr %71, i32 0, i32 6
  %73 = load i32, ptr %72, align 4, !tbaa !107
  %74 = add i32 %73, 1
  store i32 %74, ptr %72, align 4, !tbaa !107
  br label %75

75:                                               ; preds = %70, %66
  br label %76

76:                                               ; preds = %75, %63
  br label %77

77:                                               ; preds = %76, %37
  %78 = load ptr, ptr %11, align 8, !tbaa !17
  %79 = getelementptr inbounds nuw %struct.dt_gpx_t, ptr %78, i32 0, i32 3
  store i32 0, ptr %79, align 8, !tbaa !108
  br label %80

80:                                               ; preds = %77, %27
  call void @llvm.lifetime.end.p0(i64 8, ptr %11) #10
  br label %81

81:                                               ; preds = %80, %25
  ret void
}