; Function Attrs: nounwind uwtable
define internal void @_gpx_parser_end_element(ptr readnone captures(none) %0, ptr noundef readonly captures(none) %1, ptr noundef captures(none) %2, ptr noundef readonly captures(none) %3) #0 {
  %5 = load ptr, ptr %3, align 8, !tbaa !6
  %.not = icmp eq ptr %5, null
  br i1 %.not, label %7, label %6, !prof !46

6:                                                ; preds = %4
  tail call void @g_return_if_fail_warning(ptr noundef null, ptr noundef nonnull @__func__._gpx_parser_end_element, ptr noundef nonnull @.str.4) #11
  br label %40

7:                                                ; preds = %4
  %8 = getelementptr inbounds nuw i8, ptr %2, i64 32
  %9 = load i32, ptr %8, align 8, !tbaa !47
  %10 = icmp eq i32 %9, 1
  br i1 %10, label %11, label %40

11:                                               ; preds = %7
  %12 = tail call i32 @strcmp(ptr noundef nonnull dereferenceable(1) %1, ptr noundef nonnull dereferenceable(4) @.str.5) #14
  %13 = icmp eq i32 %12, 0
  br i1 %13, label %14, label %15

14:                                               ; preds = %11
  store i32 0, ptr %8, align 8, !tbaa !47
  br label %38

15:                                               ; preds = %11
  %16 = tail call i32 @strcmp(ptr noundef nonnull dereferenceable(1) %1, ptr noundef nonnull dereferenceable(6) @.str.6) #14
  %17 = icmp eq i32 %16, 0
  br i1 %17, label %18, label %31

18:                                               ; preds = %15
  %19 = getelementptr inbounds nuw i8, ptr %2, i64 28
  %20 = load i32, ptr %19, align 4, !tbaa !49
  %.not16 = icmp eq i32 %20, 0
  br i1 %.not16, label %21, label %26

21:                                               ; preds = %18
  %22 = load ptr, ptr %2, align 8, !tbaa !12
  %23 = getelementptr inbounds nuw i8, ptr %2, i64 16
  %24 = load ptr, ptr %23, align 8, !tbaa !48
  %25 = tail call ptr @g_list_prepend(ptr noundef %22, ptr noundef %24) #11
  store ptr %25, ptr %2, align 8, !tbaa !12
  br label %29

26:                                               ; preds = %18
  %27 = getelementptr inbounds nuw i8, ptr %2, i64 16
  %28 = load ptr, ptr %27, align 8, !tbaa !48
  tail call void @g_free(ptr noundef %28) #11
  br label %29

29:                                               ; preds = %26, %21
  %30 = getelementptr inbounds nuw i8, ptr %2, i64 16
  store ptr null, ptr %30, align 8, !tbaa !48
  br label %38

31:                                               ; preds = %15
  %32 = tail call i32 @strcmp(ptr noundef nonnull dereferenceable(1) %1, ptr noundef nonnull dereferenceable(7) @.str.15) #14
  %33 = icmp eq i32 %32, 0
  br i1 %33, label %34, label %38

34:                                               ; preds = %31
  %35 = getelementptr inbounds nuw i8, ptr %2, i64 36
  %36 = load i32, ptr %35, align 4, !tbaa !51
  %37 = add i32 %36, 1
  store i32 %37, ptr %35, align 4, !tbaa !51
  br label %38

38:                                               ; preds = %29, %34, %31, %14
  %39 = getelementptr inbounds nuw i8, ptr %2, i64 24
  store i32 0, ptr %39, align 8, !tbaa !52
  br label %40

40:                                               ; preds = %7, %38, %6
  ret void
}